; Function Attrs: mustprogress uwtable
define void @_ZN5Ipopt14IteratesVectorC2EPKNS_19IteratesVectorSpaceEb(ptr noundef nonnull align 8 dereferenceable(280) %0, ptr noundef %1, i1 noundef zeroext %2) unnamed_addr #0 align 2 {
  tail call void @_ZN5Ipopt14CompoundVectorC2EPKNS_19CompoundVectorSpaceEb(ptr noundef nonnull align 8 dereferenceable(265) %0, ptr noundef %1, i1 noundef zeroext %2)
  store ptr getelementptr inbounds ({ [31 x ptr], [4 x ptr] }, ptr @_ZTVN5Ipopt14IteratesVectorE, i64 0, i32 0, i64 2), ptr %0, align 8
  %4 = getelementptr inbounds i8, ptr %0, i64 16
  store ptr getelementptr inbounds ({ [31 x ptr], [4 x ptr] }, ptr @_ZTVN5Ipopt14IteratesVectorE, i64 0, i32 1, i64 2), ptr %4, align 8
  %5 = getelementptr inbounds i8, ptr %0, i64 272
  store ptr %1, ptr %5, align 8
  ret void
}